; Function Attrs: nounwind uwtable
define dso_local range(i64 -2147483648, 2147483648) i64 @date_recv(ptr noundef readonly captures(none) %0) local_unnamed_addr #0 {
  %2 = getelementptr inbounds nuw i8, ptr %0, i64 32
  %3 = load i64, ptr %2, align 8
  %4 = inttoptr i64 %3 to ptr
  %5 = tail call i32 @pq_getmsgint(ptr noundef %4, i32 noundef 4) #16
  %6 = add i32 %5, -2147483647
  %or.cond = icmp ult i32 %6, 2
  %7 = add i32 %5, 2451545
  %or.cond3 = icmp ult i32 %7, 2147483494
  %or.cond9 = or i1 %or.cond, %or.cond3
  br i1 %or.cond9, label %12, label %8

8:                                                ; preds = %1
  %9 = tail call zeroext i1 @errstart_cold(i32 noundef 21, ptr noundef null) #15
  tail call void @llvm.assume(i1 %9)
  %10 = tail call i32 @errcode(i32 noundef 134217858) #16
  %11 = tail call i32 (ptr, ...) @errmsg(ptr noundef nonnull @.str.7) #16
  tail call void @errfinish(ptr noundef nonnull @.str.3, i32 noundef 222, ptr noundef nonnull @__func__.date_recv) #16
  unreachable

12:                                               ; preds = %1
  %13 = sext i32 %5 to i64
  ret i64 %13
}